target datalayout = "e-m:e-p270:32:32-p271:32:32-p272:64:64-i64:64-i128:128-f80:128-n8:16:32:64-S128"
target triple = "x86_64-pc-linux-gnu"

@.str.24 = private unnamed_addr constant [14 x i8] c"ARKLS_SUCCESS\00", align 1
@.str.25 = private unnamed_addr constant [15 x i8] c"ARKLS_MEM_NULL\00", align 1
@.str.26 = private unnamed_addr constant [16 x i8] c"ARKLS_LMEM_NULL\00", align 1
@.str.27 = private unnamed_addr constant [16 x i8] c"ARKLS_ILL_INPUT\00", align 1
@.str.28 = private unnamed_addr constant [15 x i8] c"ARKLS_MEM_FAIL\00", align 1
@.str.29 = private unnamed_addr constant [19 x i8] c"ARKLS_MASSMEM_NULL\00", align 1
@.str.30 = private unnamed_addr constant [22 x i8] c"ARKLS_JACFUNC_UNRECVR\00", align 1
@.str.31 = private unnamed_addr constant [20 x i8] c"ARKLS_JACFUNC_RECVR\00", align 1
@.str.32 = private unnamed_addr constant [23 x i8] c"ARKLS_MASSFUNC_UNRECVR\00", align 1
@.str.33 = private unnamed_addr constant [21 x i8] c"ARKLS_MASSFUNC_RECVR\00", align 1
@.str.34 = private unnamed_addr constant [18 x i8] c"ARKLS_SUNMAT_FAIL\00", align 1
@.str.35 = private unnamed_addr constant [17 x i8] c"ARKLS_SUNLS_FAIL\00", align 1
@.str.36 = private unnamed_addr constant [5 x i8] c"NONE\00", align 1

; Function Attrs: nounwind uwtable
define ptr @ARKodeGetLinReturnFlagName(i64 noundef %0) #0 {
  %2 = alloca i64, align 8
  %3 = alloca ptr, align 8
  store i64 %0, ptr %2, align 8, !tbaa !117
  call void @llvm.lifetime.start.p0(i64 8, ptr %3) #7
  %4 = call noalias ptr @malloc(i64 noundef 30) #8
  store ptr %4, ptr %3, align 8, !tbaa !155
  %5 = load i64, ptr %2, align 8, !tbaa !117
  switch i64 %5, label %42 [
    i64 0, label %6
    i64 -1, label %9
    i64 -2, label %12
    i64 -3, label %15
    i64 -4, label %18
    i64 -6, label %21
    i64 -7, label %24
    i64 -8, label %27
    i64 -9, label %30
    i64 -10, label %33
    i64 -11, label %36
    i64 -12, label %39
  ]

6:                                                ; preds = %1
  %7 = load ptr, ptr %3, align 8, !tbaa !155
  %8 = call i32 (ptr, ptr, ...) @sprintf(ptr noundef %7, ptr noundef @.str.24) #7
  br label %45

9:                                                ; preds = %1
  %10 = load ptr, ptr %3, align 8, !tbaa !155
  %11 = call i32 (ptr, ptr, ...) @sprintf(ptr noundef %10, ptr noundef @.str.25) #7
  br label %45

12:                                               ; preds = %1
  %13 = load ptr, ptr %3, align 8, !tbaa !155
  %14 = call i32 (ptr, ptr, ...) @sprintf(ptr noundef %13, ptr noundef @.str.26) #7
  br label %45

15:                                               ; preds = %1
  %16 = load ptr, ptr %3, align 8, !tbaa !155
  %17 = call i32 (ptr, ptr, ...) @sprintf(ptr noundef %16, ptr noundef @.str.27) #7
  br label %45

18:                                               ; preds = %1
  %19 = load ptr, ptr %3, align 8, !tbaa !155
  %20 = call i32 (ptr, ptr, ...) @sprintf(ptr noundef %19, ptr noundef @.str.28) #7
  br label %45

21:                                               ; preds = %1
  %22 = load ptr, ptr %3, align 8, !tbaa !155
  %23 = call i32 (ptr, ptr, ...) @sprintf(ptr noundef %22, ptr noundef @.str.29) #7
  br label %45

24:                                               ; preds = %1
  %25 = load ptr, ptr %3, align 8, !tbaa !155
  %26 = call i32 (ptr, ptr, ...) @sprintf(ptr noundef %25, ptr noundef @.str.30) #7
  br label %45

27:                                               ; preds = %1
  %28 = load ptr, ptr %3, align 8, !tbaa !155
  %29 = call i32 (ptr, ptr, ...) @sprintf(ptr noundef %28, ptr noundef @.str.31) #7
  br label %45

30:                                               ; preds = %1
  %31 = load ptr, ptr %3, align 8, !tbaa !155
  %32 = call i32 (ptr, ptr, ...) @sprintf(ptr noundef %31, ptr noundef @.str.32) #7
  br label %45

33:                                               ; preds = %1
  %34 = load ptr, ptr %3, align 8, !tbaa !155
  %35 = call i32 (ptr, ptr, ...) @sprintf(ptr noundef %34, ptr noundef @.str.33) #7
  br label %45

36:                                               ; preds = %1
  %37 = load ptr, ptr %3, align 8, !tbaa !155
  %38 = call i32 (ptr, ptr, ...) @sprintf(ptr noundef %37, ptr noundef @.str.34) #7
  br label %45

39:                                               ; preds = %1
  %40 = load ptr, ptr %3, align 8, !tbaa !155
  %41 = call i32 (ptr, ptr, ...) @sprintf(ptr noundef %40, ptr noundef @.str.35) #7
  br label %45

42:                                               ; preds = %1
  %43 = load ptr, ptr %3, align 8, !tbaa !155
  %44 = call i32 (ptr, ptr, ...) @sprintf(ptr noundef %43, ptr noundef @.str.36) #7
  br label %45

45:                                               ; preds = %42, %39, %36, %33, %30, %27, %24, %21, %18, %15, %12, %9, %6
  %46 = load ptr, ptr %3, align 8, !tbaa !155
  call void @llvm.lifetime.end.p0(i64 8, ptr %3) #7
  ret ptr %46
}