; Function Attrs: mustprogress nofree nounwind willreturn memory(readwrite, argmem: none) uwtable
define noalias noundef ptr @ARKodeGetLinReturnFlagName(i64 noundef %0) local_unnamed_addr #8 {
  %2 = tail call noalias dereferenceable_or_null(30) ptr @malloc(i64 noundef 30) #14
  switch i64 %0, label %15 [
    i64 0, label %3
    i64 -1, label %4
    i64 -2, label %5
    i64 -3, label %6
    i64 -4, label %7
    i64 -6, label %8
    i64 -7, label %9
    i64 -8, label %10
    i64 -9, label %11
    i64 -10, label %12
    i64 -11, label %13
    i64 -12, label %14
  ]

3:                                                ; preds = %1
  tail call void @llvm.memcpy.p0.p0.i64(ptr noundef nonnull align 1 dereferenceable(14) %2, ptr noundef nonnull align 1 dereferenceable(14) @.str.24, i64 14, i1 false)
  br label %16

4:                                                ; preds = %1
  tail call void @llvm.memcpy.p0.p0.i64(ptr noundef nonnull align 1 dereferenceable(15) %2, ptr noundef nonnull align 1 dereferenceable(15) @.str.25, i64 15, i1 false)
  br label %16

5:                                                ; preds = %1
  tail call void @llvm.memcpy.p0.p0.i64(ptr noundef nonnull align 1 dereferenceable(16) %2, ptr noundef nonnull align 1 dereferenceable(16) @.str.26, i64 16, i1 false)
  br label %16

6:                                                ; preds = %1
  tail call void @llvm.memcpy.p0.p0.i64(ptr noundef nonnull align 1 dereferenceable(16) %2, ptr noundef nonnull align 1 dereferenceable(16) @.str.27, i64 16, i1 false)
  br label %16

7:                                                ; preds = %1
  tail call void @llvm.memcpy.p0.p0.i64(ptr noundef nonnull align 1 dereferenceable(15) %2, ptr noundef nonnull align 1 dereferenceable(15) @.str.28, i64 15, i1 false)
  br label %16

8:                                                ; preds = %1
  tail call void @llvm.memcpy.p0.p0.i64(ptr noundef nonnull align 1 dereferenceable(19) %2, ptr noundef nonnull align 1 dereferenceable(19) @.str.29, i64 19, i1 false)
  br label %16

9:                                                ; preds = %1
  tail call void @llvm.memcpy.p0.p0.i64(ptr noundef nonnull align 1 dereferenceable(22) %2, ptr noundef nonnull align 1 dereferenceable(22) @.str.30, i64 22, i1 false)
  br label %16

10:                                               ; preds = %1
  tail call void @llvm.memcpy.p0.p0.i64(ptr noundef nonnull align 1 dereferenceable(20) %2, ptr noundef nonnull align 1 dereferenceable(20) @.str.31, i64 20, i1 false)
  br label %16

11:                                               ; preds = %1
  tail call void @llvm.memcpy.p0.p0.i64(ptr noundef nonnull align 1 dereferenceable(23) %2, ptr noundef nonnull align 1 dereferenceable(23) @.str.32, i64 23, i1 false)
  br label %16

12:                                               ; preds = %1
  tail call void @llvm.memcpy.p0.p0.i64(ptr noundef nonnull align 1 dereferenceable(21) %2, ptr noundef nonnull align 1 dereferenceable(21) @.str.33, i64 21, i1 false)
  br label %16

13:                                               ; preds = %1
  tail call void @llvm.memcpy.p0.p0.i64(ptr noundef nonnull align 1 dereferenceable(18) %2, ptr noundef nonnull align 1 dereferenceable(18) @.str.34, i64 18, i1 false)
  br label %16

14:                                               ; preds = %1
  tail call void @llvm.memcpy.p0.p0.i64(ptr noundef nonnull align 1 dereferenceable(17) %2, ptr noundef nonnull align 1 dereferenceable(17) @.str.35, i64 17, i1 false)
  br label %16

15:                                               ; preds = %1
  tail call void @llvm.memcpy.p0.p0.i64(ptr noundef nonnull align 1 dereferenceable(5) %2, ptr noundef nonnull align 1 dereferenceable(5) @.str.36, i64 5, i1 false)
  br label %16

16:                                               ; preds = %15, %14, %13, %12, %11, %10, %9, %8, %7, %6, %5, %4, %3
  ret ptr %2
}